; Function Attrs: nounwind uwtable
define range(i32 -1, 1) i32 @H5O__disable_mdc_flushes(ptr nocapture noundef readonly %0) local_unnamed_addr #0 {
  %2 = load ptr, ptr %0, align 8
  %3 = getelementptr inbounds i8, ptr %0, i64 8
  %4 = load i64, ptr %3, align 8
  %5 = tail call i32 @H5AC_cork(ptr noundef %2, i64 noundef %4, i32 noundef 1, ptr noundef null) #4
  %6 = icmp slt i32 %5, 0
  br i1 %6, label %7, label %11

7:                                                ; preds = %1
  %8 = load i64, ptr @H5E_OHDR_g, align 8
  %9 = load i64, ptr @H5E_CANTCORK_g, align 8
  %10 = tail call i32 (ptr, ptr, i32, i64, i64, ptr, ...) @H5E_printf_stack(ptr noundef nonnull @.str, ptr noundef nonnull @__func__.H5O__disable_mdc_flushes, i32 noundef 1993, i64 noundef %8, i64 noundef %9, ptr noundef nonnull @.str.81) #4
  br label %11

11:                                               ; preds = %1, %7
  %.0 = phi i32 [ -1, %7 ], [ 0, %1 ]
  ret i32 %.0
}